; Function Attrs: nofree nounwind uwtable
define noalias noundef ptr @Llb_Nonlin4SweepVars2Q(ptr noundef readonly captures(none) %0, ptr noundef readonly captures(none) %1, i32 noundef %2) local_unnamed_addr #6 {
  %calloc = tail call dereferenceable_or_null(16) ptr @calloc(i64 1, i64 16)
  %4 = getelementptr inbounds nuw i8, ptr %calloc, i64 4
  %5 = getelementptr i8, ptr %0, i64 32
  %.val24 = load ptr, ptr %5, align 8, !tbaa !28
  %6 = getelementptr i8, ptr %.val24, i64 4
  %.val24.val = load i32, ptr %6, align 4, !tbaa !29
  %.not.i.i = icmp sgt i32 %.val24.val, 0
  br i1 %.not.i.i, label %.lr.ph.i, label %Vec_IntFill.exit

.lr.ph.i:                                         ; preds = %3
  %7 = getelementptr inbounds nuw i8, ptr %calloc, i64 8
  %8 = zext nneg i32 %.val24.val to i64
  %9 = shl nuw nsw i64 %8, 2
  %10 = tail call noalias ptr @malloc(i64 noundef %9) #14
  store ptr %10, ptr %7, align 8, !tbaa !26
  store i32 %.val24.val, ptr %calloc, align 8, !tbaa !31
  br label %11

11:                                               ; preds = %11, %.lr.ph.i
  %indvars.iv.i = phi i64 [ 0, %.lr.ph.i ], [ %indvars.iv.next.i, %11 ]
  %12 = getelementptr inbounds nuw i32, ptr %10, i64 %indvars.iv.i
  store i32 1, ptr %12, align 4, !tbaa !25
  %indvars.iv.next.i = add nuw nsw i64 %indvars.iv.i, 1
  %exitcond.not.i = icmp eq i64 %indvars.iv.next.i, %8
  br i1 %exitcond.not.i, label %Vec_IntFill.exit, label %11, !llvm.loop !67

Vec_IntFill.exit:                                 ; preds = %11, %3
  %.val = phi ptr [ null, %3 ], [ %10, %11 ]
  store i32 %.val24.val, ptr %4, align 4, !tbaa !32
  %13 = getelementptr i8, ptr %0, i64 104
  %.val3235 = load i32, ptr %13, align 8, !tbaa !47
  %14 = icmp sgt i32 %.val3235, 0
  br i1 %14, label %.lr.ph, label %.critedge2

.lr.ph:                                           ; preds = %Vec_IntFill.exit
  %15 = getelementptr inbounds nuw i8, ptr %0, i64 16
  %16 = load ptr, ptr %15, align 8, !tbaa !35
  %17 = getelementptr i8, ptr %0, i64 108
  %18 = getelementptr i8, ptr %16, i64 8
  %.val26 = load ptr, ptr %18, align 8, !tbaa !36
  %19 = getelementptr i8, ptr %1, i64 8
  %.val29 = load ptr, ptr %19, align 8, !tbaa !26
  %.val34.pre = load i32, ptr %17, align 4, !tbaa !68
  br label %20

20:                                               ; preds = %.lr.ph, %20
  %.036 = phi i32 [ 0, %.lr.ph ], [ %31, %20 ]
  %21 = add nsw i32 %.val34.pre, %.036
  %22 = sext i32 %21 to i64
  %23 = getelementptr inbounds ptr, ptr %.val26, i64 %22
  %24 = load ptr, ptr %23, align 8, !tbaa !37
  %25 = getelementptr i8, ptr %24, i64 36
  %.val30 = load i32, ptr %25, align 4, !tbaa !24
  %26 = sext i32 %.val30 to i64
  %27 = getelementptr inbounds i32, ptr %.val29, i64 %26
  %28 = load i32, ptr %27, align 4, !tbaa !25
  %29 = sext i32 %28 to i64
  %30 = getelementptr inbounds i32, ptr %.val, i64 %29
  store i32 0, ptr %30, align 4, !tbaa !25
  %31 = add nuw nsw i32 %.036, 1
  %32 = icmp slt i32 %31, %.val3235
  br i1 %32, label %20, label %.critedge, !llvm.loop !69

.critedge:                                        ; preds = %20
  %.not = icmp eq i32 %2, 0
  br i1 %.not, label %.critedge2, label %.lr.ph39

.lr.ph39:                                         ; preds = %.critedge
  %33 = getelementptr inbounds nuw i8, ptr %0, i64 24
  %34 = load ptr, ptr %33, align 8, !tbaa !34
  %35 = getelementptr i8, ptr %0, i64 112
  %36 = getelementptr i8, ptr %34, i64 8
  %.val25 = load ptr, ptr %36, align 8, !tbaa !36
  %37 = getelementptr i8, ptr %1, i64 8
  %.val27 = load ptr, ptr %37, align 8, !tbaa !26
  %.val33.pre = load i32, ptr %35, align 8, !tbaa !48
  br label %38

38:                                               ; preds = %.lr.ph39, %38
  %.138 = phi i32 [ 0, %.lr.ph39 ], [ %49, %38 ]
  %39 = add nsw i32 %.val33.pre, %.138
  %40 = sext i32 %39 to i64
  %41 = getelementptr inbounds ptr, ptr %.val25, i64 %40
  %42 = load ptr, ptr %41, align 8, !tbaa !37
  %43 = getelementptr i8, ptr %42, i64 36
  %.val28 = load i32, ptr %43, align 4, !tbaa !24
  %44 = sext i32 %.val28 to i64
  %45 = getelementptr inbounds i32, ptr %.val27, i64 %44
  %46 = load i32, ptr %45, align 4, !tbaa !25
  %47 = sext i32 %46 to i64
  %48 = getelementptr inbounds i32, ptr %.val, i64 %47
  store i32 0, ptr %48, align 4, !tbaa !25
  %49 = add nuw nsw i32 %.138, 1
  %50 = icmp slt i32 %49, %.val3235
  br i1 %50, label %38, label %.critedge2, !llvm.loop !70

.critedge2:                                       ; preds = %38, %.critedge, %Vec_IntFill.exit
  ret ptr %calloc
}